target datalayout = "e-m:e-p270:32:32-p271:32:32-p272:64:64-i64:64-i128:128-f80:128-n8:16:32:64-S128"
target triple = "x86_64-pc-linux-gnu"

%struct.FFV1Context = type { ptr, ptr, [256 x [2 x i64]], [8 x ptr], i32, i32, i32, i32, i32, i32, i32, i32, i32, i32, i64, i32, %struct.ProgressFrame, %struct.ProgressFrame, ptr, ptr, i32, i32, i32, ptr, i32, i32, [8 x [5 x [256 x i16]]], [8 x i32], [256 x i8], [8 x ptr], i32, i32, i32, i32, i32, i32, i32, i32, i32, i32, i32, i32, i32, i32, i32, i32, i32, i32, i32, ptr, ptr, i8 }
%struct.ProgressFrame = type { ptr, ptr }

; Function Attrs: nounwind uwtable
define i32 @ff_ffv1_allocate_initial_states(ptr noundef %0) #1 {
  %2 = alloca i32, align 4
  %3 = alloca ptr, align 8
  %4 = alloca i32, align 4
  %5 = alloca i32, align 4
  store ptr %0, ptr %3, align 8, !tbaa !9
  call void @llvm.lifetime.start.p0(i64 4, ptr %4) #9
  store i32 0, ptr %4, align 4, !tbaa !45
  br label %6

6:                                                ; preds = %49, %1
  %7 = load i32, ptr %4, align 4, !tbaa !45
  %8 = load ptr, ptr %3, align 8, !tbaa !9
  %9 = getelementptr inbounds nuw %struct.FFV1Context, ptr %8, i32 0, i32 44
  %10 = load i32, ptr %9, align 8, !tbaa !86
  %11 = icmp slt i32 %7, %10
  br i1 %11, label %12, label %52

12:                                               ; preds = %6
  %13 = load ptr, ptr %3, align 8, !tbaa !9
  %14 = getelementptr inbounds nuw %struct.FFV1Context, ptr %13, i32 0, i32 27
  %15 = load i32, ptr %4, align 4, !tbaa !45
  %16 = sext i32 %15 to i64
  %17 = getelementptr inbounds [8 x i32], ptr %14, i64 0, i64 %16
  %18 = load i32, ptr %17, align 4, !tbaa !45
  %19 = sext i32 %18 to i64
  %20 = call ptr @av_malloc_array(i64 noundef %19, i64 noundef 32)
  %21 = load ptr, ptr %3, align 8, !tbaa !9
  %22 = getelementptr inbounds nuw %struct.FFV1Context, ptr %21, i32 0, i32 29
  %23 = load i32, ptr %4, align 4, !tbaa !45
  %24 = sext i32 %23 to i64
  %25 = getelementptr inbounds [8 x ptr], ptr %22, i64 0, i64 %24
  store ptr %20, ptr %25, align 8, !tbaa !87
  %26 = load ptr, ptr %3, align 8, !tbaa !9
  %27 = getelementptr inbounds nuw %struct.FFV1Context, ptr %26, i32 0, i32 29
  %28 = load i32, ptr %4, align 4, !tbaa !45
  %29 = sext i32 %28 to i64
  %30 = getelementptr inbounds [8 x ptr], ptr %27, i64 0, i64 %29
  %31 = load ptr, ptr %30, align 8, !tbaa !87
  %32 = icmp ne ptr %31, null
  br i1 %32, label %34, label %33

33:                                               ; preds = %12
  store i32 -12, ptr %2, align 4
  store i32 1, ptr %5, align 4
  br label %53

34:                                               ; preds = %12
  %35 = load ptr, ptr %3, align 8, !tbaa !9
  %36 = getelementptr inbounds nuw %struct.FFV1Context, ptr %35, i32 0, i32 29
  %37 = load i32, ptr %4, align 4, !tbaa !45
  %38 = sext i32 %37 to i64
  %39 = getelementptr inbounds [8 x ptr], ptr %36, i64 0, i64 %38
  %40 = load ptr, ptr %39, align 8, !tbaa !87
  %41 = load ptr, ptr %3, align 8, !tbaa !9
  %42 = getelementptr inbounds nuw %struct.FFV1Context, ptr %41, i32 0, i32 27
  %43 = load i32, ptr %4, align 4, !tbaa !45
  %44 = sext i32 %43 to i64
  %45 = getelementptr inbounds [8 x i32], ptr %42, i64 0, i64 %44
  %46 = load i32, ptr %45, align 4, !tbaa !45
  %47 = sext i32 %46 to i64
  %48 = mul i64 %47, 32
  call void @llvm.memset.p0.i64(ptr align 1 %40, i8 -128, i64 %48, i1 false)
  br label %49

49:                                               ; preds = %34
  %50 = load i32, ptr %4, align 4, !tbaa !45
  %51 = add nsw i32 %50, 1
  store i32 %51, ptr %4, align 4, !tbaa !45
  br label %6, !llvm.loop !88

52:                                               ; preds = %6
  store i32 0, ptr %2, align 4
  store i32 1, ptr %5, align 4
  br label %53

53:                                               ; preds = %52, %33
  call void @llvm.lifetime.end.p0(i64 4, ptr %4) #9
  %54 = load i32, ptr %2, align 4
  ret i32 %54
}