; Function Attrs: nounwind uwtable
define range(i32 -12, 1) i32 @ff_ffv1_allocate_initial_states(ptr noundef captures(none) %0) local_unnamed_addr #1 {
  %2 = getelementptr inbounds nuw i8, ptr %0, i64 24792
  %3 = getelementptr inbounds nuw i8, ptr %0, i64 25200
  %4 = load i32, ptr %3, align 8, !tbaa !78
  %5 = icmp sgt i32 %4, 0
  br i1 %5, label %.lr.ph, label %._crit_edge

.lr.ph:                                           ; preds = %1
  %6 = getelementptr inbounds nuw i8, ptr %0, i64 25080
  br label %7

7:                                                ; preds = %.lr.ph, %13
  %indvars.iv = phi i64 [ 0, %.lr.ph ], [ %indvars.iv.next, %13 ]
  %8 = getelementptr inbounds nuw [8 x i32], ptr %2, i64 0, i64 %indvars.iv
  %9 = load i32, ptr %8, align 4, !tbaa !79
  %10 = sext i32 %9 to i64
  %11 = tail call ptr @av_malloc_array(i64 noundef %10, i64 noundef 32) #12
  %12 = getelementptr inbounds nuw [8 x ptr], ptr %6, i64 0, i64 %indvars.iv
  store ptr %11, ptr %12, align 8, !tbaa !80
  %.not = icmp eq ptr %11, null
  br i1 %.not, label %._crit_edge, label %13

13:                                               ; preds = %7
  %14 = load i32, ptr %8, align 4, !tbaa !79
  %15 = sext i32 %14 to i64
  %16 = shl nsw i64 %15, 5
  tail call void @llvm.memset.p0.i64(ptr nonnull align 1 %11, i8 -128, i64 %16, i1 false)
  %indvars.iv.next = add nuw nsw i64 %indvars.iv, 1
  %17 = load i32, ptr %3, align 8, !tbaa !78
  %18 = sext i32 %17 to i64
  %19 = icmp slt i64 %indvars.iv.next, %18
  br i1 %19, label %7, label %._crit_edge, !llvm.loop !81

._crit_edge:                                      ; preds = %7, %13, %1
  %.013 = phi i32 [ 0, %1 ], [ 0, %13 ], [ -12, %7 ]
  ret i32 %.013
}